; Function Attrs: mustprogress uwtable
define hidden i64 @_ZN6cvtest10randomSizeEii(i32 noundef %0, i32 noundef %1) local_unnamed_addr #4 {
  %3 = tail call noundef ptr @_ZN6cvtest2TS3ptrEv()
  %4 = tail call noundef nonnull align 8 dereferenceable(8) ptr @_ZN2cv6theRNGEv()
  %5 = icmp eq i32 %0, %1
  br i1 %5, label %_ZN6cvtest9randomIntEii.exit, label %6

6:                                                ; preds = %2
  %7 = load i64, ptr %4, align 8, !tbaa !3
  %8 = and i64 %7, 4294967295
  %9 = mul nuw i64 %8, 4164903690
  %10 = lshr i64 %7, 32
  %11 = add nuw i64 %9, %10
  store i64 %11, ptr %4, align 8, !tbaa !3
  %12 = trunc i64 %11 to i32
  %13 = sub nsw i32 %1, %0
  %14 = urem i32 %12, %13
  %15 = add i32 %14, %0
  br label %_ZN6cvtest9randomIntEii.exit

_ZN6cvtest9randomIntEii.exit:                     ; preds = %2, %6
  %16 = phi i32 [ %15, %6 ], [ %0, %2 ]
  %17 = tail call noundef ptr @_ZN6cvtest2TS3ptrEv()
  %18 = tail call noundef nonnull align 8 dereferenceable(8) ptr @_ZN2cv6theRNGEv()
  br i1 %5, label %_ZN6cvtest9randomIntEii.exit4, label %19

19:                                               ; preds = %_ZN6cvtest9randomIntEii.exit
  %20 = load i64, ptr %18, align 8, !tbaa !3
  %21 = and i64 %20, 4294967295
  %22 = mul nuw i64 %21, 4164903690
  %23 = lshr i64 %20, 32
  %24 = add nuw i64 %22, %23
  store i64 %24, ptr %18, align 8, !tbaa !3
  %25 = trunc i64 %24 to i32
  %26 = sub nsw i32 %1, %0
  %27 = urem i32 %25, %26
  %28 = add i32 %27, %0
  br label %_ZN6cvtest9randomIntEii.exit4

_ZN6cvtest9randomIntEii.exit4:                    ; preds = %_ZN6cvtest9randomIntEii.exit, %19
  %29 = phi i32 [ %28, %19 ], [ %0, %_ZN6cvtest9randomIntEii.exit ]
  %.sroa.2.0.insert.ext = zext i32 %29 to i64
  %.sroa.2.0.insert.shift = shl nuw i64 %.sroa.2.0.insert.ext, 32
  %.sroa.0.0.insert.ext = zext i32 %16 to i64
  %.sroa.0.0.insert.insert = or disjoint i64 %.sroa.2.0.insert.shift, %.sroa.0.0.insert.ext
  ret i64 %.sroa.0.0.insert.insert
}